target datalayout = "e-m:e-p270:32:32-p271:32:32-p272:64:64-i64:64-i128:128-f80:128-n8:16:32:64-S128"
target triple = "x86_64-pc-linux-gnu"

%"class.net::QuicReceivedPacketManager::EntropyTracker" = type { %"class.std::deque", i8, i64, i64 }
%"class.std::deque" = type { %"class.std::_Deque_base" }
%"class.std::_Deque_base" = type { %"struct.std::_Deque_base<std::pair<unsigned char, bool>, std::allocator<std::pair<unsigned char, bool>>>::_Deque_impl" }
%"struct.std::_Deque_base<std::pair<unsigned char, bool>, std::allocator<std::pair<unsigned char, bool>>>::_Deque_impl" = type { %"struct.std::_Deque_base<std::pair<unsigned char, bool>, std::allocator<std::pair<unsigned char, bool>>>::_Deque_impl_data" }
%"struct.std::_Deque_base<std::pair<unsigned char, bool>, std::allocator<std::pair<unsigned char, bool>>>::_Deque_impl_data" = type { ptr, i64, %"struct.std::_Deque_iterator", %"struct.std::_Deque_iterator" }
%"struct.std::_Deque_iterator" = type { ptr, ptr, ptr, ptr }
%"class.net::QuicReceivedPacketManager" = type { %"class.net::QuicReceivedEntropyHashCalculatorInterface", %"class.net::QuicReceivedPacketManager::EntropyTracker", i64, %"struct.net::QuicAckFrame", i8, %"class.net::QuicTime", ptr }
%"class.net::QuicReceivedEntropyHashCalculatorInterface" = type { ptr }
%"struct.net::QuicAckFrame" = type <{ i64, %"class.net::QuicTime::Delta", %"class.std::vector", %"class.net::PacketNumberQueue", i8, i8, i8, i8, [4 x i8] }>
%"class.net::QuicTime::Delta" = type { %"class.base::TimeDelta", i64 }
%"class.base::TimeDelta" = type { i64 }
%"class.std::vector" = type { %"struct.std::_Vector_base" }
%"struct.std::_Vector_base" = type { %"struct.std::_Vector_base<std::pair<unsigned long, net::QuicTime>, std::allocator<std::pair<unsigned long, net::QuicTime>>>::_Vector_impl" }
%"struct.std::_Vector_base<std::pair<unsigned long, net::QuicTime>, std::allocator<std::pair<unsigned long, net::QuicTime>>>::_Vector_impl" = type { %"struct.std::_Vector_base<std::pair<unsigned long, net::QuicTime>, std::allocator<std::pair<unsigned long, net::QuicTime>>>::_Vector_impl_data" }
%"struct.std::_Vector_base<std::pair<unsigned long, net::QuicTime>, std::allocator<std::pair<unsigned long, net::QuicTime>>>::_Vector_impl_data" = type { ptr, ptr, ptr }
%"class.net::PacketNumberQueue" = type { %"class.net::IntervalSet" }
%"class.net::IntervalSet" = type { %"class.std::set" }
%"class.std::set" = type { %"class.std::_Rb_tree" }
%"class.std::_Rb_tree" = type { %"struct.std::_Rb_tree<net::Interval<unsigned long>, net::Interval<unsigned long>, std::_Identity<net::Interval<unsigned long>>, net::IntervalSet<unsigned long>::IntervalComparator>::_Rb_tree_impl" }
%"struct.std::_Rb_tree<net::Interval<unsigned long>, net::Interval<unsigned long>, std::_Identity<net::Interval<unsigned long>>, net::IntervalSet<unsigned long>::IntervalComparator>::_Rb_tree_impl" = type { [8 x i8], %"struct.std::_Rb_tree_header" }
%"struct.std::_Rb_tree_header" = type { %"struct.std::_Rb_tree_node_base", i64 }
%"struct.std::_Rb_tree_node_base" = type { i32, ptr, ptr, ptr }
%"class.net::QuicTime" = type { i64 }

; Function Attrs: mustprogress uwtable
define noundef zeroext i1 @_ZN3net25QuicReceivedPacketManager9IsMissingEm(ptr noundef nonnull align 8 dereferenceable(248) %0, i64 noundef %1) unnamed_addr #0 align 2 {
  %3 = alloca i1, align 1
  %4 = alloca ptr, align 8
  %5 = alloca i64, align 8
  store ptr %0, ptr %4, align 8, !tbaa !73
  store i64 %1, ptr %5, align 8, !tbaa !22
  %6 = load ptr, ptr %4, align 8
  %7 = getelementptr inbounds nuw %"class.net::QuicReceivedPacketManager", ptr %6, i32 0, i32 3
  %8 = getelementptr inbounds nuw %"struct.net::QuicAckFrame", ptr %7, i32 0, i32 7
  %9 = load i8, ptr %8, align 1, !tbaa !120, !range !50, !noundef !51
  %10 = trunc i8 %9 to i1
  br i1 %10, label %11, label %16

11:                                               ; preds = %2
  %12 = getelementptr inbounds nuw %"class.net::QuicReceivedPacketManager", ptr %6, i32 0, i32 3
  %13 = getelementptr inbounds nuw %"struct.net::QuicAckFrame", ptr %12, i32 0, i32 3
  %14 = load i64, ptr %5, align 8, !tbaa !22
  %15 = call noundef zeroext i1 @_ZNK3net17PacketNumberQueue8ContainsEm(ptr noundef nonnull align 8 dereferenceable(48) %13, i64 noundef %14)
  store i1 %15, ptr %3, align 1
  br label %30

16:                                               ; preds = %2
  %17 = load i64, ptr %5, align 8, !tbaa !22
  %18 = getelementptr inbounds nuw %"class.net::QuicReceivedPacketManager", ptr %6, i32 0, i32 3
  %19 = getelementptr inbounds nuw %"struct.net::QuicAckFrame", ptr %18, i32 0, i32 0
  %20 = load i64, ptr %19, align 8, !tbaa !104
  %21 = icmp ult i64 %17, %20
  br i1 %21, label %22, label %28

22:                                               ; preds = %16
  %23 = getelementptr inbounds nuw %"class.net::QuicReceivedPacketManager", ptr %6, i32 0, i32 3
  %24 = getelementptr inbounds nuw %"struct.net::QuicAckFrame", ptr %23, i32 0, i32 3
  %25 = load i64, ptr %5, align 8, !tbaa !22
  %26 = call noundef zeroext i1 @_ZNK3net17PacketNumberQueue8ContainsEm(ptr noundef nonnull align 8 dereferenceable(48) %24, i64 noundef %25)
  %27 = xor i1 %26, true
  br label %28

28:                                               ; preds = %22, %16
  %29 = phi i1 [ false, %16 ], [ %27, %22 ]
  store i1 %29, ptr %3, align 1
  br label %30

30:                                               ; preds = %28, %11
  %31 = load i1, ptr %3, align 1
  ret i1 %31
}