; Function Attrs: mustprogress uwtable
define noundef zeroext i1 @_ZN3net25QuicReceivedPacketManager9IsMissingEm(ptr noundef nonnull align 8 dereferenceable(248) %0, i64 noundef %1) unnamed_addr #0 align 2 {
  %3 = getelementptr inbounds nuw i8, ptr %0, i64 219
  %4 = load i8, ptr %3, align 1, !tbaa !99, !range !41, !noundef !42
  %5 = trunc nuw i8 %4 to i1
  br i1 %5, label %6, label %9

6:                                                ; preds = %2
  %7 = getelementptr inbounds nuw i8, ptr %0, i64 168
  %8 = tail call noundef zeroext i1 @_ZNK3net17PacketNumberQueue8ContainsEm(ptr noundef nonnull align 8 dereferenceable(48) %7, i64 noundef %1)
  br label %17

9:                                                ; preds = %2
  %10 = getelementptr inbounds nuw i8, ptr %0, i64 120
  %11 = load i64, ptr %10, align 8, !tbaa !85
  %12 = icmp ult i64 %1, %11
  br i1 %12, label %13, label %17

13:                                               ; preds = %9
  %14 = getelementptr inbounds nuw i8, ptr %0, i64 168
  %15 = tail call noundef zeroext i1 @_ZNK3net17PacketNumberQueue8ContainsEm(ptr noundef nonnull align 8 dereferenceable(48) %14, i64 noundef %1)
  %16 = xor i1 %15, true
  br label %17

17:                                               ; preds = %9, %13, %6
  %.0 = phi i1 [ %8, %6 ], [ false, %9 ], [ %16, %13 ]
  ret i1 %.0
}